target datalayout = "e-m:e-p270:32:32-p271:32:32-p272:64:64-i64:64-i128:128-f80:128-n8:16:32:64-S128"
target triple = "x86_64-pc-linux-gnu"

%"class.ncnn::Mat" = type { ptr, ptr, i64, i32, ptr, i32, i32, i32, i32, i32, i64 }

; Function Attrs: alwaysinline mustprogress nounwind uwtable
define internal void @_ZN4ncnnL8fastFreeEPv(ptr noundef %0) #2 {
  %2 = alloca ptr, align 8
  store ptr %0, ptr %2, align 8, !tbaa !32
  %3 = load ptr, ptr %2, align 8, !tbaa !32
  %4 = icmp ne ptr %3, null
  br i1 %4, label %5, label %7

5:                                                ; preds = %1
  %6 = load ptr, ptr %2, align 8, !tbaa !32
  call void @free(ptr noundef %6) #9
  br label %7

7:                                                ; preds = %5, %1
  ret void
}

; Function Attrs: alwaysinline mustprogress uwtable
define linkonce_odr hidden void @_ZN4ncnn3Mat7releaseEv(ptr noundef nonnull align 8 dereferenceable(72) %0) #1 comdat align 2 {
  %2 = alloca ptr, align 8
  %3 = alloca i32, align 4
  %4 = alloca i32, align 4
  store ptr %0, ptr %2, align 8, !tbaa !4
  %5 = load ptr, ptr %2, align 8
  %6 = getelementptr inbounds nuw %"class.ncnn::Mat", ptr %5, i32 0, i32 1
  %7 = load ptr, ptr %6, align 8, !tbaa !28
  %8 = icmp ne ptr %7, null
  br i1 %8, label %9, label %32

9:                                                ; preds = %1
  %10 = getelementptr inbounds nuw %"class.ncnn::Mat", ptr %5, i32 0, i32 1
  %11 = load ptr, ptr %10, align 8, !tbaa !28
  store i32 -1, ptr %3, align 4, !tbaa !25
  %12 = load i32, ptr %3, align 4
  %13 = atomicrmw add ptr %11, i32 %12 acq_rel, align 4
  store i32 %13, ptr %4, align 4
  %14 = load i32, ptr %4, align 4, !tbaa !25
  %15 = icmp eq i32 %14, 1
  br i1 %15, label %16, label %32

16:                                               ; preds = %9
  %17 = getelementptr inbounds nuw %"class.ncnn::Mat", ptr %5, i32 0, i32 4
  %18 = load ptr, ptr %17, align 8, !tbaa !29
  %19 = icmp ne ptr %18, null
  br i1 %19, label %20, label %28

20:                                               ; preds = %16
  %21 = getelementptr inbounds nuw %"class.ncnn::Mat", ptr %5, i32 0, i32 4
  %22 = load ptr, ptr %21, align 8, !tbaa !29
  %23 = getelementptr inbounds nuw %"class.ncnn::Mat", ptr %5, i32 0, i32 0
  %24 = load ptr, ptr %23, align 8, !tbaa !23
  %25 = load ptr, ptr %22, align 8, !tbaa !30
  %26 = getelementptr inbounds ptr, ptr %25, i64 3
  %27 = load ptr, ptr %26, align 8
  call void %27(ptr noundef nonnull align 8 dereferenceable(8) %22, ptr noundef %24)
  br label %31

28:                                               ; preds = %16
  %29 = getelementptr inbounds nuw %"class.ncnn::Mat", ptr %5, i32 0, i32 0
  %30 = load ptr, ptr %29, align 8, !tbaa !23
  call void @_ZN4ncnnL8fastFreeEPv(ptr noundef %30)
  br label %31

31:                                               ; preds = %28, %20
  br label %32

32:                                               ; preds = %31, %9, %1
  %33 = getelementptr inbounds nuw %"class.ncnn::Mat", ptr %5, i32 0, i32 0
  store ptr null, ptr %33, align 8, !tbaa !23
  %34 = getelementptr inbounds nuw %"class.ncnn::Mat", ptr %5, i32 0, i32 2
  store i64 0, ptr %34, align 8, !tbaa !17
  %35 = getelementptr inbounds nuw %"class.ncnn::Mat", ptr %5, i32 0, i32 3
  store i32 0, ptr %35, align 8, !tbaa !18
  %36 = getelementptr inbounds nuw %"class.ncnn::Mat", ptr %5, i32 0, i32 5
  store i32 0, ptr %36, align 8, !tbaa !11
  %37 = getelementptr inbounds nuw %"class.ncnn::Mat", ptr %5, i32 0, i32 6
  store i32 0, ptr %37, align 4, !tbaa !16
  %38 = getelementptr inbounds nuw %"class.ncnn::Mat", ptr %5, i32 0, i32 7
  store i32 0, ptr %38, align 8, !tbaa !19
  %39 = getelementptr inbounds nuw %"class.ncnn::Mat", ptr %5, i32 0, i32 8
  store i32 0, ptr %39, align 4, !tbaa !21
  %40 = getelementptr inbounds nuw %"class.ncnn::Mat", ptr %5, i32 0, i32 9
  store i32 0, ptr %40, align 8, !tbaa !20
  %41 = getelementptr inbounds nuw %"class.ncnn::Mat", ptr %5, i32 0, i32 10
  store i64 0, ptr %41, align 8, !tbaa !22
  %42 = getelementptr inbounds nuw %"class.ncnn::Mat", ptr %5, i32 0, i32 1
  store ptr null, ptr %42, align 8, !tbaa !28
  ret void
}

; Function Attrs: alwaysinline mustprogress nounwind uwtable
define linkonce_odr hidden void @_ZN4ncnn3MatD2Ev(ptr noundef nonnull align 8 dereferenceable(72) %0) unnamed_addr #2 comdat align 2 personality ptr @__gxx_personality_v0 {
  %2 = alloca ptr, align 8
  store ptr %0, ptr %2, align 8, !tbaa !4
  %3 = load ptr, ptr %2, align 8
  invoke void @_ZN4ncnn3Mat7releaseEv(ptr noundef nonnull align 8 dereferenceable(72) %3)
          to label %4 unwind label %5

4:                                                ; preds = %1
  ret void

5:                                                ; preds = %1
  %6 = landingpad { ptr, i32 }
          catch ptr null
  %7 = extractvalue { ptr, i32 } %6, 0
  call void @__clang_call_terminate(ptr %7) #10
  unreachable
}

; Function Attrs: alwaysinline mustprogress uwtable
define linkonce_odr hidden noundef nonnull align 8 dereferenceable(72) ptr @_ZN4ncnn3MataSERKS0_(ptr noundef nonnull align 8 dereferenceable(72) %0, ptr noundef nonnull align 8 dereferenceable(72) %1) #1 comdat align 2 {
  %3 = alloca ptr, align 8
  %4 = alloca ptr, align 8
  %5 = alloca ptr, align 8
  %6 = alloca i32, align 4
  %7 = alloca i32, align 4
  store ptr %0, ptr %4, align 8, !tbaa !4
  store ptr %1, ptr %5, align 8, !tbaa !4
  %8 = load ptr, ptr %4, align 8
  %9 = load ptr, ptr %5, align 8, !tbaa !4
  %10 = icmp eq ptr %8, %9
  br i1 %10, label %11, label %12

11:                                               ; preds = %2
  store ptr %8, ptr %3, align 8
  br label %68

12:                                               ; preds = %2
  %13 = load ptr, ptr %5, align 8, !tbaa !4
  %14 = getelementptr inbounds nuw %"class.ncnn::Mat", ptr %13, i32 0, i32 1
  %15 = load ptr, ptr %14, align 8, !tbaa !28
  %16 = icmp ne ptr %15, null
  br i1 %16, label %17, label %23

17:                                               ; preds = %12
  %18 = load ptr, ptr %5, align 8, !tbaa !4
  %19 = getelementptr inbounds nuw %"class.ncnn::Mat", ptr %18, i32 0, i32 1
  %20 = load ptr, ptr %19, align 8, !tbaa !28
  store i32 1, ptr %6, align 4, !tbaa !25
  %21 = load i32, ptr %6, align 4
  %22 = atomicrmw add ptr %20, i32 %21 acq_rel, align 4
  store i32 %22, ptr %7, align 4
  br label %23

23:                                               ; preds = %17, %12
  call void @_ZN4ncnn3Mat7releaseEv(ptr noundef nonnull align 8 dereferenceable(72) %8)
  %24 = load ptr, ptr %5, align 8, !tbaa !4
  %25 = getelementptr inbounds nuw %"class.ncnn::Mat", ptr %24, i32 0, i32 0
  %26 = load ptr, ptr %25, align 8, !tbaa !23
  %27 = getelementptr inbounds nuw %"class.ncnn::Mat", ptr %8, i32 0, i32 0
  store ptr %26, ptr %27, align 8, !tbaa !23
  %28 = load ptr, ptr %5, align 8, !tbaa !4
  %29 = getelementptr inbounds nuw %"class.ncnn::Mat", ptr %28, i32 0, i32 1
  %30 = load ptr, ptr %29, align 8, !tbaa !28
  %31 = getelementptr inbounds nuw %"class.ncnn::Mat", ptr %8, i32 0, i32 1
  store ptr %30, ptr %31, align 8, !tbaa !28
  %32 = load ptr, ptr %5, align 8, !tbaa !4
  %33 = getelementptr inbounds nuw %"class.ncnn::Mat", ptr %32, i32 0, i32 2
  %34 = load i64, ptr %33, align 8, !tbaa !17
  %35 = getelementptr inbounds nuw %"class.ncnn::Mat", ptr %8, i32 0, i32 2
  store i64 %34, ptr %35, align 8, !tbaa !17
  %36 = load ptr, ptr %5, align 8, !tbaa !4
  %37 = getelementptr inbounds nuw %"class.ncnn::Mat", ptr %36, i32 0, i32 3
  %38 = load i32, ptr %37, align 8, !tbaa !18
  %39 = getelementptr inbounds nuw %"class.ncnn::Mat", ptr %8, i32 0, i32 3
  store i32 %38, ptr %39, align 8, !tbaa !18
  %40 = load ptr, ptr %5, align 8, !tbaa !4
  %41 = getelementptr inbounds nuw %"class.ncnn::Mat", ptr %40, i32 0, i32 4
  %42 = load ptr, ptr %41, align 8, !tbaa !29
  %43 = getelementptr inbounds nuw %"class.ncnn::Mat", ptr %8, i32 0, i32 4
  store ptr %42, ptr %43, align 8, !tbaa !29
  %44 = load ptr, ptr %5, align 8, !tbaa !4
  %45 = getelementptr inbounds nuw %"class.ncnn::Mat", ptr %44, i32 0, i32 5
  %46 = load i32, ptr %45, align 8, !tbaa !11
  %47 = getelementptr inbounds nuw %"class.ncnn::Mat", ptr %8, i32 0, i32 5
  store i32 %46, ptr %47, align 8, !tbaa !11
  %48 = load ptr, ptr %5, align 8, !tbaa !4
  %49 = getelementptr inbounds nuw %"class.ncnn::Mat", ptr %48, i32 0, i32 6
  %50 = load i32, ptr %49, align 4, !tbaa !16
  %51 = getelementptr inbounds nuw %"class.ncnn::Mat", ptr %8, i32 0, i32 6
  store i32 %50, ptr %51, align 4, !tbaa !16
  %52 = load ptr, ptr %5, align 8, !tbaa !4
  %53 = getelementptr inbounds nuw %"class.ncnn::Mat", ptr %52, i32 0, i32 7
  %54 = load i32, ptr %53, align 8, !tbaa !19
  %55 = getelementptr inbounds nuw %"class.ncnn::Mat", ptr %8, i32 0, i32 7
  store i32 %54, ptr %55, align 8, !tbaa !19
  %56 = load ptr, ptr %5, align 8, !tbaa !4
  %57 = getelementptr inbounds nuw %"class.ncnn::Mat", ptr %56, i32 0, i32 8
  %58 = load i32, ptr %57, align 4, !tbaa !21
  %59 = getelementptr inbounds nuw %"class.ncnn::Mat", ptr %8, i32 0, i32 8
  store i32 %58, ptr %59, align 4, !tbaa !21
  %60 = load ptr, ptr %5, align 8, !tbaa !4
  %61 = getelementptr inbounds nuw %"class.ncnn::Mat", ptr %60, i32 0, i32 9
  %62 = load i32, ptr %61, align 8, !tbaa !20
  %63 = getelementptr inbounds nuw %"class.ncnn::Mat", ptr %8, i32 0, i32 9
  store i32 %62, ptr %63, align 8, !tbaa !20
  %64 = load ptr, ptr %5, align 8, !tbaa !4
  %65 = getelementptr inbounds nuw %"class.ncnn::Mat", ptr %64, i32 0, i32 10
  %66 = load i64, ptr %65, align 8, !tbaa !22
  %67 = getelementptr inbounds nuw %"class.ncnn::Mat", ptr %8, i32 0, i32 10
  store i64 %66, ptr %67, align 8, !tbaa !22
  store ptr %8, ptr %3, align 8
  br label %68

68:                                               ; preds = %23, %11
  %69 = load ptr, ptr %3, align 8
  ret ptr %69
}

; Function Attrs: mustprogress uwtable
define hidden void @_ZN4ncnn3Mat10clone_fromERKS0_PNS_9AllocatorE(ptr noundef nonnull align 8 dereferenceable(72) %0, ptr noundef nonnull align 8 dereferenceable(72) %1, ptr noundef %2) #0 align 2 personality ptr @__gxx_personality_v0 {
  %4 = alloca ptr, align 8
  %5 = alloca ptr, align 8
  %6 = alloca ptr, align 8
  %7 = alloca %"class.ncnn::Mat", align 8
  %8 = alloca ptr, align 8
  %9 = alloca i32, align 4
  store ptr %0, ptr %4, align 8, !tbaa !4
  store ptr %1, ptr %5, align 8, !tbaa !4
  store ptr %2, ptr %6, align 8, !tbaa !9
  %10 = load ptr, ptr %4, align 8
  call void @llvm.lifetime.start.p0(i64 72, ptr %7) #9
  %11 = load ptr, ptr %5, align 8, !tbaa !4
  %12 = load ptr, ptr %6, align 8, !tbaa !9
  call void @_ZNK4ncnn3Mat5cloneEPNS_9AllocatorE(ptr dead_on_unwind writable sret(%"class.ncnn::Mat") align 8 %7, ptr noundef nonnull align 8 dereferenceable(72) %11, ptr noundef %12)
  %13 = invoke noundef nonnull align 8 dereferenceable(72) ptr @_ZN4ncnn3MataSERKS0_(ptr noundef nonnull align 8 dereferenceable(72) %10, ptr noundef nonnull align 8 dereferenceable(72) %7)
          to label %14 unwind label %15

14:                                               ; preds = %3
  call void @_ZN4ncnn3MatD2Ev(ptr noundef nonnull align 8 dereferenceable(72) %7) #9
  call void @llvm.lifetime.end.p0(i64 72, ptr %7) #9
  ret void

15:                                               ; preds = %3
  %16 = landingpad { ptr, i32 }
          cleanup
  %17 = extractvalue { ptr, i32 } %16, 0
  store ptr %17, ptr %8, align 8
  %18 = extractvalue { ptr, i32 } %16, 1
  store i32 %18, ptr %9, align 4
  call void @_ZN4ncnn3MatD2Ev(ptr noundef nonnull align 8 dereferenceable(72) %7) #9
  call void @llvm.lifetime.end.p0(i64 72, ptr %7) #9
  br label %19

19:                                               ; preds = %15
  %20 = load ptr, ptr %8, align 8
  %21 = load i32, ptr %9, align 4
  %22 = insertvalue { ptr, i32 } poison, ptr %20, 0
  %23 = insertvalue { ptr, i32 } %22, i32 %21, 1
  resume { ptr, i32 } %23
}