; Function Attrs: mustprogress uwtable
define hidden void @_ZN4ncnn3Mat10clone_fromERKS0_PNS_9AllocatorE(ptr noundef nonnull align 8 captures(none) dereferenceable(72) %0, ptr noundef nonnull readonly align 8 captures(none) dereferenceable(72) %1, ptr noundef %2) local_unnamed_addr #0 align 2 personality ptr @__gxx_personality_v0 {
  %4 = alloca %"class.ncnn::Mat", align 8
  call void @llvm.lifetime.start.p0(i64 72, ptr nonnull %4) #12
  call void @_ZNK4ncnn3Mat5cloneEPNS_9AllocatorE(ptr dead_on_unwind nonnull writable sret(%"class.ncnn::Mat") align 8 %4, ptr noundef nonnull align 8 dereferenceable(72) %1, ptr noundef %2)
  %5 = getelementptr inbounds nuw i8, ptr %4, i64 8
  %6 = load ptr, ptr %5, align 8, !tbaa !19
  %.not.i12 = icmp eq ptr %6, null
  br i1 %.not.i12, label %9, label %7

7:                                                ; preds = %3
  %8 = atomicrmw add ptr %6, i32 1 acq_rel, align 4
  br label %9

9:                                                ; preds = %7, %3
  %10 = getelementptr inbounds nuw i8, ptr %0, i64 8
  %11 = load ptr, ptr %10, align 8, !tbaa !19
  %.not.i.i = icmp eq ptr %11, null
  br i1 %.not.i.i, label %_ZN4ncnn3Mat7releaseEv.exit.i, label %12

12:                                               ; preds = %9
  %13 = atomicrmw add ptr %11, i32 -1 acq_rel, align 4
  %14 = icmp eq i32 %13, 1
  br i1 %14, label %15, label %_ZN4ncnn3Mat7releaseEv.exit.i

15:                                               ; preds = %12
  %16 = getelementptr inbounds nuw i8, ptr %0, i64 32
  %17 = load ptr, ptr %16, align 8, !tbaa !30
  %.not3.i.i = icmp eq ptr %17, null
  %18 = load ptr, ptr %0, align 8, !tbaa !4
  br i1 %.not3.i.i, label %23, label %19

19:                                               ; preds = %15
  %20 = load ptr, ptr %17, align 8, !tbaa !31
  %21 = getelementptr inbounds nuw i8, ptr %20, i64 24
  %22 = load ptr, ptr %21, align 8
  invoke void %22(ptr noundef nonnull align 8 dereferenceable(8) %17, ptr noundef %18)
          to label %_ZN4ncnn3Mat7releaseEv.exit.i unwind label %69

23:                                               ; preds = %15
  %.not.i18.i = icmp eq ptr %18, null
  br i1 %.not.i18.i, label %_ZN4ncnn3Mat7releaseEv.exit.i, label %24

24:                                               ; preds = %23
  tail call void @free(ptr noundef nonnull %18) #12
  br label %_ZN4ncnn3Mat7releaseEv.exit.i

_ZN4ncnn3Mat7releaseEv.exit.i:                    ; preds = %23, %24, %19, %12, %9
  %25 = getelementptr inbounds nuw i8, ptr %0, i64 16
  %26 = getelementptr inbounds nuw i8, ptr %0, i64 24
  %27 = getelementptr inbounds nuw i8, ptr %0, i64 40
  %28 = getelementptr inbounds nuw i8, ptr %0, i64 44
  %29 = getelementptr inbounds nuw i8, ptr %0, i64 48
  %30 = getelementptr inbounds nuw i8, ptr %0, i64 52
  %31 = getelementptr inbounds nuw i8, ptr %0, i64 56
  %32 = getelementptr inbounds nuw i8, ptr %0, i64 64
  %33 = load ptr, ptr %4, align 8, !tbaa !4
  store ptr %33, ptr %0, align 8, !tbaa !4
  %34 = load ptr, ptr %5, align 8, !tbaa !19
  store ptr %34, ptr %10, align 8, !tbaa !19
  %35 = getelementptr inbounds nuw i8, ptr %4, i64 16
  %36 = load i64, ptr %35, align 8, !tbaa !17
  store i64 %36, ptr %25, align 8, !tbaa !17
  %37 = getelementptr inbounds nuw i8, ptr %4, i64 24
  %38 = load i32, ptr %37, align 8, !tbaa !18
  store i32 %38, ptr %26, align 8, !tbaa !18
  %39 = getelementptr inbounds nuw i8, ptr %4, i64 32
  %40 = load ptr, ptr %39, align 8, !tbaa !30
  %41 = getelementptr inbounds nuw i8, ptr %0, i64 32
  store ptr %40, ptr %41, align 8, !tbaa !30
  %42 = getelementptr inbounds nuw i8, ptr %4, i64 40
  %43 = load i32, ptr %42, align 8, !tbaa !15
  store i32 %43, ptr %27, align 8, !tbaa !15
  %44 = getelementptr inbounds nuw i8, ptr %4, i64 44
  %45 = load i32, ptr %44, align 4, !tbaa !16
  store i32 %45, ptr %28, align 4, !tbaa !16
  %46 = getelementptr inbounds nuw i8, ptr %4, i64 48
  %47 = load i32, ptr %46, align 8, !tbaa !20
  store i32 %47, ptr %29, align 8, !tbaa !20
  %48 = getelementptr inbounds nuw i8, ptr %4, i64 52
  %49 = load i32, ptr %48, align 4, !tbaa !21
  store i32 %49, ptr %30, align 4, !tbaa !21
  %50 = getelementptr inbounds nuw i8, ptr %4, i64 56
  %51 = load i32, ptr %50, align 8, !tbaa !14
  store i32 %51, ptr %31, align 8, !tbaa !14
  %52 = getelementptr inbounds nuw i8, ptr %4, i64 64
  %53 = load i64, ptr %52, align 8, !tbaa !13
  store i64 %53, ptr %32, align 8, !tbaa !13
  %.not.i = icmp eq ptr %34, null
  br i1 %.not.i, label %_ZN4ncnn3MatD2Ev.exit4, label %54

54:                                               ; preds = %_ZN4ncnn3Mat7releaseEv.exit.i
  %55 = atomicrmw add ptr %34, i32 -1 acq_rel, align 4
  %56 = icmp eq i32 %55, 1
  br i1 %56, label %57, label %_ZN4ncnn3MatD2Ev.exit4

57:                                               ; preds = %54
  %58 = load ptr, ptr %39, align 8, !tbaa !30
  %.not3.i = icmp eq ptr %58, null
  %59 = load ptr, ptr %4, align 8, !tbaa !4
  br i1 %.not3.i, label %64, label %60

60:                                               ; preds = %57
  %61 = load ptr, ptr %58, align 8, !tbaa !31
  %62 = getelementptr inbounds nuw i8, ptr %61, i64 24
  %63 = load ptr, ptr %62, align 8
  invoke void %63(ptr noundef nonnull align 8 dereferenceable(8) %58, ptr noundef %59)
          to label %_ZN4ncnn3MatD2Ev.exit4 unwind label %66

64:                                               ; preds = %57
  %.not.i10 = icmp eq ptr %59, null
  br i1 %.not.i10, label %_ZN4ncnn3MatD2Ev.exit4, label %65

65:                                               ; preds = %64
  tail call void @free(ptr noundef nonnull %59) #12
  br label %_ZN4ncnn3MatD2Ev.exit4

66:                                               ; preds = %60
  %67 = landingpad { ptr, i32 }
          catch ptr null
  %68 = extractvalue { ptr, i32 } %67, 0
  tail call void @__clang_call_terminate(ptr %68) #13
  unreachable

_ZN4ncnn3MatD2Ev.exit4:                           ; preds = %54, %_ZN4ncnn3Mat7releaseEv.exit.i, %60, %64, %65
  call void @llvm.lifetime.end.p0(i64 72, ptr nonnull %4) #12
  ret void

69:                                               ; preds = %19
  %70 = landingpad { ptr, i32 }
          cleanup
  %71 = load ptr, ptr %5, align 8, !tbaa !19
  %.not.i5 = icmp eq ptr %71, null
  br i1 %.not.i5, label %_ZN4ncnn3MatD2Ev.exit, label %72

72:                                               ; preds = %69
  %73 = atomicrmw add ptr %71, i32 -1 acq_rel, align 4
  %74 = icmp eq i32 %73, 1
  br i1 %74, label %75, label %_ZN4ncnn3MatD2Ev.exit

75:                                               ; preds = %72
  %76 = getelementptr inbounds nuw i8, ptr %4, i64 32
  %77 = load ptr, ptr %76, align 8, !tbaa !30
  %.not3.i6 = icmp eq ptr %77, null
  %78 = load ptr, ptr %4, align 8, !tbaa !4
  br i1 %.not3.i6, label %83, label %79

79:                                               ; preds = %75
  %80 = load ptr, ptr %77, align 8, !tbaa !31
  %81 = getelementptr inbounds nuw i8, ptr %80, i64 24
  %82 = load ptr, ptr %81, align 8
  invoke void %82(ptr noundef nonnull align 8 dereferenceable(8) %77, ptr noundef %78)
          to label %_ZN4ncnn3MatD2Ev.exit unwind label %85

83:                                               ; preds = %75
  %.not.i9 = icmp eq ptr %78, null
  br i1 %.not.i9, label %_ZN4ncnn3MatD2Ev.exit, label %84

84:                                               ; preds = %83
  tail call void @free(ptr noundef nonnull %78) #12
  br label %_ZN4ncnn3MatD2Ev.exit

85:                                               ; preds = %79
  %86 = landingpad { ptr, i32 }
          catch ptr null
  %87 = extractvalue { ptr, i32 } %86, 0
  tail call void @__clang_call_terminate(ptr %87) #13
  unreachable

_ZN4ncnn3MatD2Ev.exit:                            ; preds = %72, %69, %79, %83, %84
  call void @llvm.lifetime.end.p0(i64 72, ptr nonnull %4) #12
  resume { ptr, i32 } %70
}